TN:
SF:/app/test_class1/src/class1.cpp
FN:4,_ZN10Calculator3addEii
FN:9,_ZN10Calculator5greetERKNSt7__cxx1112basic_stringIcSt11char_traitsIcESaIcEEE
FNDA:1,_ZN10Calculator5greetERKNSt7__cxx1112basic_stringIcSt11char_traitsIcESaIcEEE
FNDA:2,_ZN10Calculator3addEii
FNF:2
FNH:2
DA:4,2
DA:6,2
DA:9,1
DA:11,2
LF:4
LH:4
end_of_record
TN:
SF:/app/test_class1/test/test1.cpp
FN:7,_ZN27CalculatorTest_AddTest_TestD2Ev
FN:7,_ZN27CalculatorTest_AddTest_TestD0Ev
FN:7,_ZN27CalculatorTest_AddTest_TestC2Ev
FN:7,_ZN27CalculatorTest_AddTest_Test8TestBodyEv
FN:16,_ZN29CalculatorTest_GreetTest_TestD0Ev
FN:16,_ZN29CalculatorTest_GreetTest_TestD2Ev
FN:16,_ZN29CalculatorTest_GreetTest_TestC2Ev
FN:16,_ZN29CalculatorTest_GreetTest_Test8TestBodyEv
FNDA:1,_ZN27CalculatorTest_AddTest_TestD0Ev
FNDA:1,_ZN29CalculatorTest_GreetTest_TestC2Ev
FNDA:1,_ZN27CalculatorTest_AddTest_TestD2Ev
FNDA:1,_ZN29CalculatorTest_GreetTest_TestD2Ev
FNDA:1,_ZN29CalculatorTest_GreetTest_TestD0Ev
FNDA:1,_ZN27CalculatorTest_AddTest_Test8TestBodyEv
FNDA:1,_ZN29CalculatorTest_GreetTest_Test8TestBodyEv
FNDA:1,_ZN27CalculatorTest_AddTest_TestC2Ev
FNF:8
FNH:8
DA:7,4
DA:10,1
DA:11,1
DA:12,1
DA:16,4
DA:19,2
DA:20,1
LF:7
LH:7
end_of_record
TN:
SF:/app/test_class2/src/class2.cpp
FN:4,_ZN13CalculatorSub3subEii
FN:9,_ZN13CalculatorSub5greetERKNSt7__cxx1112basic_stringIcSt11char_traitsIcESaIcEEE
FNDA:2,_ZN13CalculatorSub3subEii
FNDA:0,_ZN13CalculatorSub5greetERKNSt7__cxx1112basic_stringIcSt11char_traitsIcESaIcEEE
FNF:2
FNH:1
DA:4,2
DA:6,2
DA:9,0
DA:11,0
LF:4
LH:2
end_of_record
TN:
SF:/app/test_class2/test/test2.cpp
FN:5,_ZN30CalculatorSubTest_AddTest_TestD0Ev
FN:5,_ZN30CalculatorSubTest_AddTest_TestD2Ev
FN:5,_ZN30CalculatorSubTest_AddTest_TestC2Ev
FN:5,_ZN30CalculatorSubTest_AddTest_Test8TestBodyEv
FNDA:1,_ZN30CalculatorSubTest_AddTest_TestD2Ev
FNDA:1,_ZN30CalculatorSubTest_AddTest_TestC2Ev
FNDA:1,_ZN30CalculatorSubTest_AddTest_Test8TestBodyEv
FNDA:1,_ZN30CalculatorSubTest_AddTest_TestD0Ev
FNF:4
FNH:4
DA:5,4
DA:8,1
DA:9,1
DA:10,1
LF:4
LH:4
end_of_record
TN:
SF:/app/test_class3/src/class3.cpp
FN:4,_ZN13CalculatorDiv3divEii
FN:9,_ZN13CalculatorDiv5greetERKNSt7__cxx1112basic_stringIcSt11char_traitsIcESaIcEEE
FNDA:0,_ZN13CalculatorDiv3divEii
FNDA:0,_ZN13CalculatorDiv5greetERKNSt7__cxx1112basic_stringIcSt11char_traitsIcESaIcEEE
FNF:2
FNH:0
DA:4,0
DA:6,0
DA:9,0
DA:11,0
LF:4
LH:0
end_of_record
TN:
SF:/app/test_class3/test/test3.cpp
FN:5,_ZN30CalculatorDivTest_AddTest_Test8TestBodyEv
FN:5,_ZN30CalculatorDivTest_AddTest_TestD2Ev
FN:5,_ZN30CalculatorDivTest_AddTest_TestC2Ev
FN:5,_ZN30CalculatorDivTest_AddTest_TestD0Ev
FNDA:1,_ZN30CalculatorDivTest_AddTest_TestD0Ev
FNDA:1,_ZN30CalculatorDivTest_AddTest_TestC2Ev
FNDA:1,_ZN30CalculatorDivTest_AddTest_TestD2Ev
FNDA:1,_ZN30CalculatorDivTest_AddTest_Test8TestBodyEv
FNF:4
FNH:4
DA:5,4
DA:8,1
DA:9,1
LF:3
LH:3
end_of_record
